target datalayout = "e-m:e-p270:32:32-p271:32:32-p272:64:64-i64:64-i128:128-f80:128-n8:16:32:64-S128"
target triple = "x86_64-pc-linux-gnu"

%"class.absl::NoDestructor" = type { %"class.absl::NoDestructor<absl::profiling_internal::SampleRecorder<absl::container_internal::HashtablezInfo>>::PlacementImpl" }
%"class.absl::NoDestructor<absl::profiling_internal::SampleRecorder<absl::container_internal::HashtablezInfo>>::PlacementImpl" = type { [712 x i8] }
%"struct.std::atomic.6" = type { %"struct.std::__atomic_base.7" }
%"struct.std::__atomic_base.7" = type { ptr }
%"struct.absl::container_internal::HashtablezInfo" = type { %"struct.absl::profiling_internal::Sample", %"struct.std::atomic", %"struct.std::atomic", %"struct.std::atomic", %"struct.std::atomic", %"struct.std::atomic", %"struct.std::atomic", %"struct.std::atomic", %"struct.std::atomic", %"struct.std::atomic", %"struct.std::atomic", %"class.absl::Time", i32, i16, [64 x ptr], i64, i64, i64 }
%"struct.absl::profiling_internal::Sample" = type { %"class.absl::Mutex", ptr, ptr, i64 }
%"class.absl::Mutex" = type { %"struct.std::atomic.2" }
%"struct.std::atomic.2" = type { %"struct.std::__atomic_base.3" }
%"struct.std::__atomic_base.3" = type { i64 }
%"struct.std::atomic" = type { %"struct.std::__atomic_base" }
%"struct.std::__atomic_base" = type { i64 }
%"class.absl::Time" = type { %"class.absl::Duration" }
%"class.absl::Duration" = type { %"class.absl::Duration::HiRep", i32 }
%"class.absl::Duration::HiRep" = type { i32, i32 }
%"class.absl::profiling_internal::SampleRecorder" = type { %"struct.std::atomic", %"struct.std::atomic", %"struct.std::atomic", %"struct.std::atomic.0", %"struct.absl::container_internal::HashtablezInfo", %"struct.std::atomic.4" }
%"struct.std::atomic.0" = type { %"struct.std::__atomic_base.1" }
%"struct.std::__atomic_base.1" = type { ptr }
%"struct.std::atomic.4" = type { %"struct.std::__atomic_base.5" }
%"struct.std::__atomic_base.5" = type { ptr }

@_ZZN4absl18container_internal23GlobalHashtablezSamplerEvE7sampler = internal global %"class.absl::NoDestructor" zeroinitializer, align 8
@_ZGVZN4absl18container_internal23GlobalHashtablezSamplerEvE7sampler = internal global i64 0, align 8
@_ZN4absl18container_internal12_GLOBAL__N_128g_hashtablez_config_listenerE = internal global %"struct.std::atomic.6" zeroinitializer, align 8
@.str = private unnamed_addr constant [145 x i8] c"generated/home/dtcxzyw/WorkSpace/Projects/compilers/llvm-opt-benchmark/bench/abseil-cpp/abseil-cpp/absl/container/internal/hashtablez_sampler.cc\00", align 1
@.str.2 = private unnamed_addr constant [34 x i8] c"Invalid hashtablez max samples: 0\00", align 1

; Function Attrs: mustprogress nounwind uwtable
define linkonce_odr dso_local noundef ptr @_ZSt7launderIN4absl18profiling_internal14SampleRecorderINS0_18container_internal14HashtablezInfoEEEEPT_S7_(ptr noundef %0) #4 comdat {
  %2 = alloca ptr, align 8
  store ptr %0, ptr %2, align 8, !tbaa !60
  %3 = load ptr, ptr %2, align 8, !tbaa !60
  ret ptr %3
}

; Function Attrs: mustprogress nounwind uwtable
define linkonce_odr dso_local noundef ptr @_ZN4absl12NoDestructorINS_18profiling_internal14SampleRecorderINS_18container_internal14HashtablezInfoEEEE13PlacementImpl7LaunderIS5_EEPT_SA_(ptr noundef %0) #4 comdat align 2 {
  %2 = alloca ptr, align 8
  store ptr %0, ptr %2, align 8, !tbaa !60
  %3 = load ptr, ptr %2, align 8, !tbaa !60
  %4 = call noundef ptr @_ZSt7launderIN4absl18profiling_internal14SampleRecorderINS0_18container_internal14HashtablezInfoEEEEPT_S7_(ptr noundef %3) #1
  ret ptr %4
}

; Function Attrs: mustprogress uwtable
define linkonce_odr dso_local noundef ptr @_ZN4absl12NoDestructorINS_18profiling_internal14SampleRecorderINS_18container_internal14HashtablezInfoEEEE13PlacementImpl3getEv(ptr noundef nonnull align 8 dereferenceable(712) %0) #0 comdat align 2 {
  %2 = alloca ptr, align 8
  store ptr %0, ptr %2, align 8, !tbaa !77
  %3 = load ptr, ptr %2, align 8
  %4 = getelementptr inbounds nuw %"class.absl::NoDestructor<absl::profiling_internal::SampleRecorder<absl::container_internal::HashtablezInfo>>::PlacementImpl", ptr %3, i32 0, i32 0
  %5 = call noundef ptr @_ZN4absl12NoDestructorINS_18profiling_internal14SampleRecorderINS_18container_internal14HashtablezInfoEEEE13PlacementImpl7LaunderIS5_EEPT_SA_(ptr noundef %4)
  ret ptr %5
}

; Function Attrs: mustprogress nounwind uwtable
define linkonce_odr dso_local noundef i32 @_ZStanSt12memory_orderSt23__memory_order_modifier(i32 noundef %0, i32 noundef %1) #4 comdat {
  %3 = alloca i32, align 4
  %4 = alloca i32, align 4
  store i32 %0, ptr %3, align 4, !tbaa !43
  store i32 %1, ptr %4, align 4, !tbaa !116
  %5 = load i32, ptr %3, align 4, !tbaa !43
  %6 = load i32, ptr %4, align 4, !tbaa !116
  %7 = and i32 %5, %6
  ret i32 %7
}

; Function Attrs: mustprogress uwtable
define linkonce_odr dso_local noundef ptr @_ZN4absl12NoDestructorINS_18profiling_internal14SampleRecorderINS_18container_internal14HashtablezInfoEEEE3getEv(ptr noundef nonnull align 8 dereferenceable(712) %0) #0 comdat align 2 {
  %2 = alloca ptr, align 8
  store ptr %0, ptr %2, align 8, !tbaa !5
  %3 = load ptr, ptr %2, align 8
  %4 = getelementptr inbounds nuw %"class.absl::NoDestructor", ptr %3, i32 0, i32 0
  %5 = call noundef ptr @_ZN4absl12NoDestructorINS_18profiling_internal14SampleRecorderINS_18container_internal14HashtablezInfoEEEE13PlacementImpl3getEv(ptr noundef nonnull align 8 dereferenceable(712) %4)
  ret ptr %5
}

; Function Attrs: alwaysinline mustprogress nounwind uwtable
define linkonce_odr dso_local noundef ptr @_ZNKSt13__atomic_baseIPFvvEE4loadESt12memory_order(ptr noundef nonnull align 8 dereferenceable(8) %0, i32 noundef %1) #5 comdat align 2 {
  %3 = alloca ptr, align 8
  %4 = alloca i32, align 4
  %5 = alloca i32, align 4
  %6 = alloca ptr, align 8
  store ptr %0, ptr %3, align 8, !tbaa !118
  store i32 %1, ptr %4, align 4, !tbaa !43
  %7 = load ptr, ptr %3, align 8
  call void @llvm.lifetime.start.p0(i64 4, ptr %5) #1
  %8 = load i32, ptr %4, align 4, !tbaa !43
  %9 = call noundef i32 @_ZStanSt12memory_orderSt23__memory_order_modifier(i32 noundef %8, i32 noundef 65535)
  store i32 %9, ptr %5, align 4, !tbaa !43
  br label %10

10:                                               ; preds = %2
  br label %11

11:                                               ; preds = %10
  br label %12

12:                                               ; preds = %11
  br label %13

13:                                               ; preds = %12
  br label %14

14:                                               ; preds = %13
  br label %15

15:                                               ; preds = %14
  %16 = getelementptr inbounds nuw %"struct.std::__atomic_base.7", ptr %7, i32 0, i32 0
  %17 = load i32, ptr %4, align 4, !tbaa !43
  switch i32 %17, label %18 [
    i32 1, label %20
    i32 2, label %20
    i32 5, label %22
  ]

18:                                               ; preds = %15
  %19 = load atomic i64, ptr %16 monotonic, align 8
  store i64 %19, ptr %6, align 8
  br label %24

20:                                               ; preds = %15, %15
  %21 = load atomic i64, ptr %16 acquire, align 8
  store i64 %21, ptr %6, align 8
  br label %24

22:                                               ; preds = %15
  %23 = load atomic i64, ptr %16 seq_cst, align 8
  store i64 %23, ptr %6, align 8
  br label %24

24:                                               ; preds = %22, %20, %18
  %25 = load ptr, ptr %6, align 8, !tbaa !64
  call void @llvm.lifetime.end.p0(i64 4, ptr %5) #1
  ret ptr %25
}

; Function Attrs: alwaysinline mustprogress nounwind uwtable
define linkonce_odr dso_local void @_ZNSt13__atomic_baseImE5storeEmSt12memory_order(ptr noundef nonnull align 8 dereferenceable(8) %0, i64 noundef %1, i32 noundef %2) #5 comdat align 2 {
  %4 = alloca ptr, align 8
  %5 = alloca i64, align 8
  %6 = alloca i32, align 4
  %7 = alloca i32, align 4
  %8 = alloca i64, align 8
  store ptr %0, ptr %4, align 8, !tbaa !41
  store i64 %1, ptr %5, align 8, !tbaa !23
  store i32 %2, ptr %6, align 4, !tbaa !43
  %9 = load ptr, ptr %4, align 8
  call void @llvm.lifetime.start.p0(i64 4, ptr %7) #1
  %10 = load i32, ptr %6, align 4, !tbaa !43
  %11 = call noundef i32 @_ZStanSt12memory_orderSt23__memory_order_modifier(i32 noundef %10, i32 noundef 65535)
  store i32 %11, ptr %7, align 4, !tbaa !43
  br label %12

12:                                               ; preds = %3
  br label %13

13:                                               ; preds = %12
  br label %14

14:                                               ; preds = %13
  br label %15

15:                                               ; preds = %14
  br label %16

16:                                               ; preds = %15
  br label %17

17:                                               ; preds = %16
  br label %18

18:                                               ; preds = %17
  br label %19

19:                                               ; preds = %18
  br label %20

20:                                               ; preds = %19
  %21 = getelementptr inbounds nuw %"struct.std::__atomic_base", ptr %9, i32 0, i32 0
  %22 = load i32, ptr %6, align 4, !tbaa !43
  %23 = load i64, ptr %5, align 8, !tbaa !23
  store i64 %23, ptr %8, align 8, !tbaa !23
  switch i32 %22, label %24 [
    i32 3, label %26
    i32 5, label %28
  ]

24:                                               ; preds = %20
  %25 = load i64, ptr %8, align 8
  store atomic i64 %25, ptr %21 monotonic, align 8
  br label %30

26:                                               ; preds = %20
  %27 = load i64, ptr %8, align 8
  store atomic i64 %27, ptr %21 release, align 8
  br label %30

28:                                               ; preds = %20
  %29 = load i64, ptr %8, align 8
  store atomic i64 %29, ptr %21 seq_cst, align 8
  br label %30

30:                                               ; preds = %28, %26, %24
  call void @llvm.lifetime.end.p0(i64 4, ptr %7) #1
  ret void
}

; Function Attrs: mustprogress uwtable
define linkonce_odr dso_local noundef nonnull align 8 dereferenceable(712) ptr @_ZN4absl12NoDestructorINS_18profiling_internal14SampleRecorderINS_18container_internal14HashtablezInfoEEEEdeEv(ptr noundef nonnull align 8 dereferenceable(712) %0) #0 comdat align 2 {
  %2 = alloca ptr, align 8
  store ptr %0, ptr %2, align 8, !tbaa !5
  %3 = load ptr, ptr %2, align 8
  %4 = call noundef ptr @_ZN4absl12NoDestructorINS_18profiling_internal14SampleRecorderINS_18container_internal14HashtablezInfoEEEE3getEv(ptr noundef nonnull align 8 dereferenceable(712) %3)
  ret ptr %4
}

; Function Attrs: mustprogress nounwind uwtable
define linkonce_odr dso_local noundef ptr @_ZNKSt6atomicIPFvvEE4loadESt12memory_order(ptr noundef nonnull align 8 dereferenceable(8) %0, i32 noundef %1) #4 comdat align 2 {
  %3 = alloca ptr, align 8
  %4 = alloca i32, align 4
  store ptr %0, ptr %3, align 8, !tbaa !65
  store i32 %1, ptr %4, align 4, !tbaa !43
  %5 = load ptr, ptr %3, align 8
  %6 = getelementptr inbounds nuw %"struct.std::atomic.6", ptr %5, i32 0, i32 0
  %7 = load i32, ptr %4, align 4, !tbaa !43
  %8 = call noundef ptr @_ZNKSt13__atomic_baseIPFvvEE4loadESt12memory_order(ptr noundef nonnull align 8 dereferenceable(8) %6, i32 noundef %7) #1
  ret ptr %8
}

; Function Attrs: mustprogress nounwind uwtable
define linkonce_odr dso_local void @_ZN4absl18profiling_internal14SampleRecorderINS_18container_internal14HashtablezInfoEE13SetMaxSamplesEm(ptr noundef nonnull align 8 dereferenceable(712) %0, i64 noundef %1) #4 comdat align 2 {
  %3 = alloca ptr, align 8
  %4 = alloca i64, align 8
  store ptr %0, ptr %3, align 8, !tbaa !60
  store i64 %1, ptr %4, align 8, !tbaa !23
  %5 = load ptr, ptr %3, align 8
  %6 = getelementptr inbounds nuw %"class.absl::profiling_internal::SampleRecorder", ptr %5, i32 0, i32 2
  %7 = load i64, ptr %4, align 8, !tbaa !23
  call void @_ZNSt13__atomic_baseImE5storeEmSt12memory_order(ptr noundef nonnull align 8 dereferenceable(8) %6, i64 noundef %7, i32 noundef 3) #1
  ret void
}

; Function Attrs: mustprogress uwtable
define dso_local noundef nonnull align 8 dereferenceable(712) ptr @_ZN4absl18container_internal23GlobalHashtablezSamplerEv() #0 personality ptr @__gxx_personality_v0 {
  %1 = alloca ptr, align 8
  %2 = alloca i32, align 4
  %3 = load atomic i8, ptr @_ZGVZN4absl18container_internal23GlobalHashtablezSamplerEvE7sampler acquire, align 8
  %4 = icmp eq i8 %3, 0
  br i1 %4, label %5, label %10, !prof !4

5:                                                ; preds = %0
  %6 = call i32 @__cxa_guard_acquire(ptr @_ZGVZN4absl18container_internal23GlobalHashtablezSamplerEvE7sampler) #1
  %7 = icmp ne i32 %6, 0
  br i1 %7, label %8, label %10

8:                                                ; preds = %5
  invoke void @_ZN4absl12NoDestructorINS_18profiling_internal14SampleRecorderINS_18container_internal14HashtablezInfoEEEEC2IJETnNSt9enable_ifIXntsr3std7is_sameIFvDpRNSt5decayIT_E4typeEEFvRS6_EEE5valueEiE4typeELi0EEEDpOSA_(ptr noundef nonnull align 8 dereferenceable(712) @_ZZN4absl18container_internal23GlobalHashtablezSamplerEvE7sampler)
          to label %9 unwind label %12

9:                                                ; preds = %8
  call void @__cxa_guard_release(ptr @_ZGVZN4absl18container_internal23GlobalHashtablezSamplerEvE7sampler) #1
  br label %10

10:                                               ; preds = %9, %5, %0
  %11 = call noundef nonnull align 8 dereferenceable(712) ptr @_ZN4absl12NoDestructorINS_18profiling_internal14SampleRecorderINS_18container_internal14HashtablezInfoEEEEdeEv(ptr noundef nonnull align 8 dereferenceable(712) @_ZZN4absl18container_internal23GlobalHashtablezSamplerEvE7sampler)
  ret ptr %11

12:                                               ; preds = %8
  %13 = landingpad { ptr, i32 }
          cleanup
  %14 = extractvalue { ptr, i32 } %13, 0
  store ptr %14, ptr %1, align 8
  %15 = extractvalue { ptr, i32 } %13, 1
  store i32 %15, ptr %2, align 4
  call void @__cxa_guard_abort(ptr @_ZGVZN4absl18container_internal23GlobalHashtablezSamplerEvE7sampler) #1
  br label %16

16:                                               ; preds = %12
  %17 = load ptr, ptr %1, align 8
  %18 = load i32, ptr %2, align 4
  %19 = insertvalue { ptr, i32 } poison, ptr %17, 0
  %20 = insertvalue { ptr, i32 } %19, i32 %18, 1
  resume { ptr, i32 } %20
}

; Function Attrs: mustprogress uwtable
define internal void @_ZN4absl18container_internal12_GLOBAL__N_131TriggerHashtablezConfigListenerEv() #0 {
  %1 = alloca ptr, align 8
  call void @llvm.lifetime.start.p0(i64 8, ptr %1) #1
  %2 = call noundef ptr @_ZNKSt6atomicIPFvvEE4loadESt12memory_order(ptr noundef nonnull align 8 dereferenceable(8) @_ZN4absl18container_internal12_GLOBAL__N_128g_hashtablez_config_listenerE, i32 noundef 2) #1
  store ptr %2, ptr %1, align 8, !tbaa !64
  %3 = load ptr, ptr %1, align 8, !tbaa !64
  %4 = icmp ne ptr %3, null
  br i1 %4, label %5, label %7

5:                                                ; preds = %0
  %6 = load ptr, ptr %1, align 8, !tbaa !64
  call void %6()
  br label %7

7:                                                ; preds = %5, %0
  call void @llvm.lifetime.end.p0(i64 8, ptr %1) #1
  ret void
}

; Function Attrs: mustprogress uwtable
define dso_local void @_ZN4absl18container_internal31SetHashtablezMaxSamplesInternalEm(i64 noundef %0) #0 {
  %2 = alloca i64, align 8
  %3 = alloca ptr, align 8
  store i64 %0, ptr %2, align 8, !tbaa !23
  %4 = load i64, ptr %2, align 8, !tbaa !23
  %5 = icmp ugt i64 %4, 0
  br i1 %5, label %6, label %9

6:                                                ; preds = %1
  %7 = call noundef nonnull align 8 dereferenceable(712) ptr @_ZN4absl18container_internal23GlobalHashtablezSamplerEv()
  %8 = load i64, ptr %2, align 8, !tbaa !23
  call void @_ZN4absl18profiling_internal14SampleRecorderINS_18container_internal14HashtablezInfoEE13SetMaxSamplesEm(ptr noundef nonnull align 8 dereferenceable(712) %7, i64 noundef %8)
  br label %12

9:                                                ; preds = %1
  br label %10

10:                                               ; preds = %9
  call void @llvm.lifetime.start.p0(i64 8, ptr %3) #1
  store ptr getelementptr (i8, ptr @.str, i64 123), ptr %3, align 8, !tbaa !75
  call void (i32, ptr, i32, ptr, ...) @_ZN4absl16raw_log_internal6RawLogENS_11LogSeverityEPKciS3_z(i32 noundef 2, ptr noundef getelementptr (i8, ptr @.str, i64 123), i32 noundef 314, ptr noundef @.str.2)
  call void @llvm.lifetime.end.p0(i64 8, ptr %3) #1
  br label %11

11:                                               ; preds = %10
  br label %12

12:                                               ; preds = %11, %6
  ret void
}

; Function Attrs: mustprogress uwtable
define dso_local void @_ZN4absl18container_internal23SetHashtablezMaxSamplesEm(i64 noundef %0) #0 {
  %2 = alloca i64, align 8
  store i64 %0, ptr %2, align 8, !tbaa !23
  %3 = load i64, ptr %2, align 8, !tbaa !23
  call void @_ZN4absl18container_internal31SetHashtablezMaxSamplesInternalEm(i64 noundef %3)
  call void @_ZN4absl18container_internal12_GLOBAL__N_131TriggerHashtablezConfigListenerEv()
  ret void
}